target datalayout = "e-m:e-p270:32:32-p271:32:32-p272:64:64-i64:64-i128:128-f80:128-n8:16:32:64-S128"
target triple = "x86_64-pc-linux-gnu"

%"class.OpenSubdiv::v3_6_0::Bfr::FaceSurface" = type <{ ptr, ptr, %"class.OpenSubdiv::v3_6_0::Vtr::internal::StackBuffer.0", %"class.OpenSubdiv::v3_6_0::Bfr::MultiVertexTag", %"class.OpenSubdiv::v3_6_0::Sdc::Options", i8, i8 }>
%"class.OpenSubdiv::v3_6_0::Vtr::internal::StackBuffer.0" = type { ptr, i32, i32, [96 x i8], ptr }
%"class.OpenSubdiv::v3_6_0::Bfr::MultiVertexTag" = type { %"class.OpenSubdiv::v3_6_0::Bfr::FeatureBits" }
%"class.OpenSubdiv::v3_6_0::Bfr::FeatureBits" = type { i16 }
%"class.OpenSubdiv::v3_6_0::Sdc::Options" = type { i8, i8, i8, i8 }
%"class.OpenSubdiv::v3_6_0::Bfr::FaceTopology" = type { i32, %"class.OpenSubdiv::v3_6_0::Sdc::Options", i32, i32, i32, %"class.OpenSubdiv::v3_6_0::Bfr::MultiVertexTag", i8, %"class.OpenSubdiv::v3_6_0::Vtr::internal::StackBuffer" }
%"class.OpenSubdiv::v3_6_0::Vtr::internal::StackBuffer" = type { ptr, i32, i32, [896 x i8], ptr }
%"class.OpenSubdiv::v3_6_0::Bfr::VertexTag" = type { %"class.OpenSubdiv::v3_6_0::Bfr::FeatureBits" }
%"class.OpenSubdiv::v3_6_0::Bfr::FaceVertex" = type { %"class.OpenSubdiv::v3_6_0::Bfr::VertexDescriptor", %"class.OpenSubdiv::v3_6_0::Bfr::VertexTag", i16, i16, i8, i8, i32, %"class.OpenSubdiv::v3_6_0::Vtr::internal::StackBuffer.3" }
%"class.OpenSubdiv::v3_6_0::Bfr::VertexDescriptor" = type { i8, i16, float, %"class.OpenSubdiv::v3_6_0::Vtr::internal::StackBuffer.1", %"class.OpenSubdiv::v3_6_0::Vtr::internal::StackBuffer.2" }
%"class.OpenSubdiv::v3_6_0::Vtr::internal::StackBuffer.1" = type { ptr, i32, i32, [64 x i8], ptr }
%"class.OpenSubdiv::v3_6_0::Vtr::internal::StackBuffer.2" = type { ptr, i32, i32, [32 x i8], ptr }
%"class.OpenSubdiv::v3_6_0::Vtr::internal::StackBuffer.3" = type { ptr, i32, i32, [32 x i8], ptr }

; Function Attrs: mustprogress nounwind uwtable
define linkonce_odr noundef i32 @_ZNK10OpenSubdiv6v3_6_03Bfr10FaceVertex11GetNumFacesEv(ptr noundef nonnull align 8 dereferenceable(224) %0) #1 comdat align 2 {
  %2 = alloca ptr, align 8
  store ptr %0, ptr %2, align 8
  %3 = load ptr, ptr %2, align 8
  %4 = getelementptr inbounds nuw %"class.OpenSubdiv::v3_6_0::Bfr::FaceVertex", ptr %3, i32 0, i32 0
  %5 = getelementptr inbounds nuw %"class.OpenSubdiv::v3_6_0::Bfr::VertexDescriptor", ptr %4, i32 0, i32 1
  %6 = load i16, ptr %5, align 2
  %7 = sext i16 %6 to i32
  ret i32 %7
}

; Function Attrs: mustprogress nounwind uwtable
define linkonce_odr noundef i32 @_ZNK10OpenSubdiv6v3_6_03Sdc7Options27GetVtxBoundaryInterpolationEv(ptr noundef nonnull align 1 dereferenceable(4) %0) #1 comdat align 2 {
  %2 = alloca ptr, align 8
  store ptr %0, ptr %2, align 8
  %3 = load ptr, ptr %2, align 8
  %4 = getelementptr inbounds nuw %"class.OpenSubdiv::v3_6_0::Sdc::Options", ptr %3, i32 0, i32 0
  %5 = load i8, ptr %4, align 1
  %6 = zext i8 %5 to i32
  ret i32 %6
}

; Function Attrs: mustprogress uwtable
define void @_ZNK10OpenSubdiv6v3_6_03Bfr11FaceSurface36sharpenBySdcVtxBoundaryInterpolationEPNS1_16FaceVertexSubsetERKNS1_10FaceVertexE(ptr noundef nonnull align 8 dereferenceable(143) %0, ptr noundef %1, ptr noundef nonnull align 8 dereferenceable(224) %2) #0 align 2 {
  %4 = alloca ptr, align 8
  %5 = alloca ptr, align 8
  %6 = alloca ptr, align 8
  %7 = alloca i8, align 1
  store ptr %0, ptr %4, align 8
  store ptr %1, ptr %5, align 8
  store ptr %2, ptr %6, align 8
  %8 = load ptr, ptr %4, align 8
  store i8 0, ptr %7, align 1
  %9 = getelementptr inbounds nuw %"class.OpenSubdiv::v3_6_0::Bfr::FaceSurface", ptr %8, i32 0, i32 0
  %10 = load ptr, ptr %9, align 8
  %11 = getelementptr inbounds nuw %"class.OpenSubdiv::v3_6_0::Bfr::FaceTopology", ptr %10, i32 0, i32 1
  %12 = call noundef i32 @_ZNK10OpenSubdiv6v3_6_03Sdc7Options27GetVtxBoundaryInterpolationEv(ptr noundef nonnull align 1 dereferenceable(4) %11)
  switch i32 %12, label %20 [
    i32 0, label %13
    i32 1, label %14
    i32 2, label %15
  ]

13:                                               ; preds = %3
  br label %21

14:                                               ; preds = %3
  br label %21

15:                                               ; preds = %3
  %16 = load ptr, ptr %6, align 8
  %17 = call noundef i32 @_ZNK10OpenSubdiv6v3_6_03Bfr10FaceVertex11GetNumFacesEv(ptr noundef nonnull align 8 dereferenceable(224) %16)
  %18 = icmp eq i32 %17, 1
  %19 = zext i1 %18 to i8
  store i8 %19, ptr %7, align 1
  br label %21

20:                                               ; preds = %3
  br label %21

21:                                               ; preds = %20, %15, %14, %13
  %22 = load i8, ptr %7, align 1
  %23 = trunc i8 %22 to i1
  br i1 %23, label %24, label %27

24:                                               ; preds = %21
  %25 = load ptr, ptr %6, align 8
  %26 = load ptr, ptr %5, align 8
  call void @_ZNK10OpenSubdiv6v3_6_03Bfr10FaceVertex13SharpenSubsetEPNS1_16FaceVertexSubsetE(ptr noundef nonnull align 8 dereferenceable(224) %25, ptr noundef %26)
  br label %27

27:                                               ; preds = %24, %21
  ret void
}