; Function Attrs: mustprogress uwtable
define void @_ZNK10OpenSubdiv6v3_6_03Bfr11FaceSurface36sharpenBySdcVtxBoundaryInterpolationEPNS1_16FaceVertexSubsetERKNS1_10FaceVertexE(ptr nocapture noundef nonnull readonly align 8 dereferenceable(143) %0, ptr noundef %1, ptr noundef nonnull align 8 dereferenceable(224) %2) local_unnamed_addr #0 align 2 {
  %4 = load ptr, ptr %0, align 8
  %5 = getelementptr inbounds nuw i8, ptr %4, i64 4
  %6 = load i8, ptr %5, align 1
  %cond = icmp eq i8 %6, 2
  %7 = getelementptr inbounds nuw i8, ptr %2, i64 2
  %8 = load i16, ptr %7, align 2
  %9 = icmp eq i16 %8, 1
  %or.cond = select i1 %cond, i1 %9, i1 false
  br i1 %or.cond, label %10, label %.critedge

10:                                               ; preds = %3
  tail call void @_ZNK10OpenSubdiv6v3_6_03Bfr10FaceVertex13SharpenSubsetEPNS1_16FaceVertexSubsetE(ptr noundef nonnull align 8 dereferenceable(224) %2, ptr noundef %1)
  br label %.critedge

.critedge:                                        ; preds = %3, %10
  ret void
}